; Function Attrs: mustprogress uwtable
define void @_ZN5folly6fibers5Baton14TimeoutHandler15scheduleTimeoutENSt6chrono8durationIlSt5ratioILl1ELl1000EEEE(ptr noundef nonnull align 8 dereferenceable(104) %0, i64 %1) local_unnamed_addr #0 align 2 {
  %3 = icmp sgt i64 %1, 0
  br i1 %3, label %4, label %13

4:                                                ; preds = %2
  %5 = getelementptr inbounds nuw i8, ptr %0, i64 96
  %6 = load ptr, ptr %5, align 8, !tbaa !109
  %7 = getelementptr inbounds nuw i8, ptr %6, i64 120
  %8 = load ptr, ptr %7, align 8, !tbaa !123
  %9 = load ptr, ptr %8, align 8, !tbaa !8
  %10 = getelementptr inbounds nuw i8, ptr %9, i64 56
  %11 = load ptr, ptr %10, align 8
  %12 = tail call noundef ptr %11(ptr noundef nonnull align 8 dereferenceable(8) %8)
  tail call void @_ZN5folly16HHWheelTimerBaseINSt6chrono8durationIlSt5ratioILl1ELl1000EEEEE15scheduleTimeoutEPNS6_8CallbackES5_(ptr noundef nonnull align 8 dereferenceable(16712) %12, ptr noundef nonnull %0, i64 %1)
  br label %13

13:                                               ; preds = %4, %2
  ret void
}